target datalayout = "e-m:e-p270:32:32-p271:32:32-p272:64:64-i64:64-i128:128-f80:128-n8:16:32:64-S128"
target triple = "x86_64-pc-linux-gnu"

; Function Attrs: nounwind uwtable
define internal void @iblend_hline(ptr noundef %0, i32 noundef %1, i32 noundef %2, float noundef %3, float noundef %4, i32 noundef %5, i32 noundef %6) #1 {
  %8 = alloca ptr, align 8
  %9 = alloca i32, align 4
  %10 = alloca i32, align 4
  %11 = alloca float, align 4
  %12 = alloca float, align 4
  %13 = alloca i32, align 4
  %14 = alloca i32, align 4
  %15 = alloca i32, align 4
  store ptr %0, ptr %8, align 8, !tbaa !77
  store i32 %1, ptr %9, align 4, !tbaa !47
  store i32 %2, ptr %10, align 4, !tbaa !47
  store float %3, ptr %11, align 4, !tbaa !69
  store float %4, ptr %12, align 4, !tbaa !69
  store i32 %5, ptr %13, align 4, !tbaa !47
  store i32 %6, ptr %14, align 4, !tbaa !47
  call void @llvm.lifetime.start.p0(i64 4, ptr %15) #10
  store i32 0, ptr %15, align 4, !tbaa !47
  br label %16

16:                                               ; preds = %46, %7
  %17 = load i32, ptr %15, align 4, !tbaa !47
  %18 = load i32, ptr %9, align 4, !tbaa !47
  %19 = icmp slt i32 %17, %18
  br i1 %19, label %20, label %50

20:                                               ; preds = %16
  %21 = load i32, ptr %13, align 4, !tbaa !47
  %22 = load ptr, ptr %8, align 8, !tbaa !77
  %23 = load i32, ptr %15, align 4, !tbaa !47
  %24 = sext i32 %23 to i64
  %25 = getelementptr inbounds i8, ptr %22, i64 %24
  %26 = load i8, ptr %25, align 1, !tbaa !68
  %27 = zext i8 %26 to i32
  %28 = sub nsw i32 %21, %27
  %29 = sitofp i32 %28 to float
  %30 = load float, ptr %11, align 4, !tbaa !69
  %31 = load ptr, ptr %8, align 8, !tbaa !77
  %32 = load i32, ptr %15, align 4, !tbaa !47
  %33 = sext i32 %32 to i64
  %34 = getelementptr inbounds i8, ptr %31, i64 %33
  %35 = load i8, ptr %34, align 1, !tbaa !68
  %36 = zext i8 %35 to i32
  %37 = sitofp i32 %36 to float
  %38 = load float, ptr %12, align 4, !tbaa !69
  %39 = fmul nsz float %37, %38
  %40 = call nsz float @llvm.fmuladd.f32(float %29, float %30, float %39)
  %41 = fptoui float %40 to i8
  %42 = load ptr, ptr %8, align 8, !tbaa !77
  %43 = load i32, ptr %15, align 4, !tbaa !47
  %44 = sext i32 %43 to i64
  %45 = getelementptr inbounds i8, ptr %42, i64 %44
  store i8 %41, ptr %45, align 1, !tbaa !68
  br label %46

46:                                               ; preds = %20
  %47 = load i32, ptr %14, align 4, !tbaa !47
  %48 = load i32, ptr %15, align 4, !tbaa !47
  %49 = add nsw i32 %48, %47
  store i32 %49, ptr %15, align 4, !tbaa !47
  br label %16, !llvm.loop !230

50:                                               ; preds = %16
  call void @llvm.lifetime.end.p0(i64 4, ptr %15) #10
  ret void
}